Certificate:
    Data:
        Version: 3 (0x2)
        Serial Number: 1 (0x1)
    Signature Algorithm: sha256WithRSAEncryption
        Issuer: CN=www.ciuvo.com, ST=Vienna, C=AT/emailAddress=operations@ciuvo.com, O=CiuvoGmbH, OU=Engineering
        Validity
            Not Before: Dec 21 16:27:35 2017 GMT
            Not After : Dec 19 16:27:35 2027 GMT
        Subject: CN=localhost, ST=Vienna, C=AT/emailAddress=operations@ciuvo.com, O=Ciuvo GmbH, OU=Development
        Subject Public Key Info:
            Public Key Algorithm: rsaEncryption
                Public-Key: (2048 bit)
                Modulus:
                    00:af:1a:89:ab:72:81:84:14:c7:12:95:55:88:9c:
                    e0:80:d3:c4:d0:ac:ef:77:43:d9:79:1c:56:cc:c5:
                    a9:80:1b:44:a4:87:97:be:ac:ae:51:2e:f5:f2:a0:
                    b3:d3:40:83:87:36:a1:c2:c3:13:ea:0d:ba:8d:c3:
                    46:26:31:b9:45:6b:cf:dd:8d:5d:ac:5b:b2:5c:fc:
                    70:ce:34:96:e3:6b:c0:c3:32:aa:f0:eb:9b:1e:af:
                    f9:3a:e6:f4:49:9a:04:d7:d6:5a:da:32:ea:f4:21:
                    73:e3:2c:55:b3:f0:45:5b:b8:35:8b:cc:fb:21:fa:
                    50:19:8c:30:9f:4d:dc:2b:68:76:e0:37:b9:d6:ca:
                    1f:5c:01:ce:bc:72:32:7d:13:d9:80:eb:e4:eb:e6:
                    49:4a:98:af:38:4e:b0:f9:10:fb:fe:e2:18:c1:8a:
                    cf:ad:d4:11:91:b8:2c:e3:64:71:9b:41:db:f1:da:
                    d0:4d:b2:7c:0e:88:9b:42:c6:97:13:59:7d:83:15:
                    25:2f:d6:3e:08:f6:1b:51:bd:38:5a:09:4b:82:f4:
                    ec:0d:6c:bc:c0:5d:f8:3a:8c:00:81:ff:3d:dc:06:
                    c1:57:21:5a:62:39:54:23:ed:19:08:7d:1b:1d:04:
                    95:87:1a:a2:b8:fa:ee:95:3f:85:2d:1e:81:f8:ae:
                    17:29
                Exponent: 65537 (0x10001)
        X509v3 extensions:
            X509v3 Basic Constraints: 
                CA:FALSE
            X509v3 Key Usage: 
                Digital Signature, Non Repudiation, Key Encipherment
            X509v3 Extended Key Usage: 
                TLS Web Server Authentication
            X509v3 Subject Alternative Name: 
                DNS:localhost, DNS:local.ciuvo
    Signature Algorithm: sha256WithRSAEncryption
         68:91:e9:f9:17:f3:1b:b3:a6:15:02:4e:83:72:c6:8a:4a:d6:
         8e:b9:18:2e:5e:86:d0:1b:f9:7c:36:f9:01:e1:b5:a5:85:ad:
         49:01:e6:53:24:9a:f9:95:03:bd:62:b6:e5:dc:83:9f:5f:08:
         a6:47:f9:0f:46:2e:29:a3:07:92:22:7a:6c:05:7d:9e:46:77:
         e5:3c:e6:d6:83:80:94:a0:24:98:91:fa:94:f7:4f:84:65:0c:
         b8:49:e7:c4:d5:74:27:c7:da:58:f3:64:b6:fe:ec:2a:b1:21:
         2a:0a:a1:04:ac:dc:49:2d:7f:87:e8:82:39:e0:6a:f6:37:4c:
         3f:35:ad:e1:93:be:18:74:bc:68:96:b2:4c:b8:95:fe:67:d7:
         92:16:17:cd:af:6c:d3:fe:77:e3:a9:f3:a4:ba:48:f2:a2:b0:
         f3:14:e8:e2:bb:c3:1e:b2:62:b7:e2:80:d1:e5:c8:25:15:5b:
         e5:28:49:b5:e8:db:5d:77:85:5e:81:f5:b4:3c:2d:f7:01:d4:
         64:2f:63:50:a0:d3:1c:02:fc:20:82:96:ad:0a:4c:05:be:f9:
         32:5e:c2:ab:92:e3:fe:7c:b9:68:18:49:8c:28:34:62:54:08:
         86:d3:38:88:71:6a:ab:d7:68:46:9f:32:00:29:67:a2:79:7a:
         b6:4a:83:8e
-----BEGIN CERTIFICATE-----
MIID1jCCAr6gAwIBAgIBATANBgkqhkiG9w0BAQsFADCBhTEWMBQGA1UEAwwNd3d3
LmNpdXZvLmNvbTEPMA0GA1UECAwGVmllbm5hMQswCQYDVQQGEwJBVDEjMCEGCSqG
SIb3DQEJARYUb3BlcmF0aW9uc0BjaXV2by5jb20xEjAQBgNVBAoMCUNpdXZvR21i
SDEUMBIGA1UECwwLRW5naW5lZXJpbmcwHhcNMTcxMjIxMTYyNzM1WhcNMjcxMjE5
MTYyNzM1WjCBgjESMBAGA1UEAwwJbG9jYWxob3N0MQ8wDQYDVQQIDAZWaWVubmEx
CzAJBgNVBAYTAkFUMSMwIQYJKoZIhvcNAQkBFhRvcGVyYXRpb25zQGNpdXZvLmNv
bTETMBEGA1UECgwKQ2l1dm8gR21iSDEUMBIGA1UECwwLRGV2ZWxvcG1lbnQwggEi
MA0GCSqGSIb3DQEBAQUAA4IBDwAwggEKAoIBAQCvGomrcoGEFMcSlVWInOCA08TQ
rO93Q9l5HFbMxamAG0Skh5e+rK5RLvXyoLPTQIOHNqHCwxPqDbqNw0YmMblFa8/d
jV2sW7Jc/HDONJbja8DDMqrw65ser/k65vRJmgTX1lraMur0IXPjLFWz8EVbuDWL
zPsh+lAZjDCfTdwraHbgN7nWyh9cAc68cjJ9E9mA6+Tr5klKmK84TrD5EPv+4hjB
is+t1BGRuCzjZHGbQdvx2tBNsnwOiJtCxpcTWX2DFSUv1j4I9htRvThaCUuC9OwN
bLzAXfg6jACB/z3cBsFXIVpiOVQj7RkIfRsdBJWHGqK4+u6VP4UtHoH4rhcpAgMB
AAGjUjBQMAkGA1UdEwQCMAAwCwYDVR0PBAQDAgXgMBMGA1UdJQQMMAoGCCsGAQUF
BwMBMCEGA1UdEQQaMBiCCWxvY2FsaG9zdIILbG9jYWwuY2l1dm8wDQYJKoZIhvcN
AQELBQADggEBAGiR6fkX8xuzphUCToNyxopK1o65GC5ehtAb+Xw2+QHhtaWFrUkB
5lMkmvmVA71ituXcg59fCKZH+Q9GLimjB5IiemwFfZ5Gd+U85taDgJSgJJiR+pT3
T4RlDLhJ58TVdCfH2ljzZLb+7CqxISoKoQSs3Ektf4fogjngavY3TD81reGTvhh0
vGiWsky4lf5n15IWF82vbNP+d+Op86S6SPKisPMU6OK7wx6yYrfigNHlyCUVW+Uo
SbXo2113hV6B9bQ8LfcB1GQvY1Cg0xwC/CCClq0KTAW++TJewquS4/58uWgYSYwo
NGJUCIbTOIhxaqvXaEafMgApZ6J5erZKg44=
-----END CERTIFICATE-----
